; Function Attrs: mustprogress uwtable
define internal void @_ZNK5faiss12_GLOBAL__N_114IVFSQScannerL2INS0_10DCTemplateINS0_17QuantizerTemplateINS0_9Codec8bitELb0ELi1EEENS0_12SimilarityL2ILi1EEELi1EEELi1EE16scan_codes_rangeEmPKhPKlfRNS_16RangeQueryResultE(ptr nocapture noundef nonnull readonly align 8 dereferenceable(152) %0, i64 noundef %1, ptr nocapture noundef readonly %2, ptr nocapture noundef readonly %3, float noundef %4, ptr noundef nonnull align 8 dereferenceable(24) %5) unnamed_addr #0 align 2 {
  %.not21 = icmp eq i64 %1, 0
  br i1 %.not21, label %._crit_edge, label %.lr.ph

.lr.ph:                                           ; preds = %6
  %7 = getelementptr inbounds i8, ptr %0, i64 24
  %8 = getelementptr inbounds i8, ptr %0, i64 80
  %9 = getelementptr inbounds i8, ptr %0, i64 64
  %10 = getelementptr inbounds i8, ptr %0, i64 88
  %11 = getelementptr inbounds i8, ptr %0, i64 96
  %12 = getelementptr inbounds i8, ptr %0, i64 17
  %13 = getelementptr inbounds i8, ptr %0, i64 8
  %14 = getelementptr inbounds i8, ptr %0, i64 32
  br label %15

15:                                               ; preds = %.lr.ph, %56
  %.019 = phi ptr [ %2, %.lr.ph ], [ %59, %56 ]
  %.01517 = phi i64 [ 0, %.lr.ph ], [ %57, %56 ]
  %16 = load ptr, ptr %7, align 8
  %17 = getelementptr inbounds i64, ptr %3, i64 %.01517
  %18 = load i64, ptr %17, align 8
  %19 = load ptr, ptr %16, align 8
  %20 = load ptr, ptr %19, align 8
  %21 = tail call noundef zeroext i1 %20(ptr noundef nonnull align 8 dereferenceable(8) %16, i64 noundef %18)
  br i1 %21, label %22, label %56

22:                                               ; preds = %15
  %23 = load i64, ptr %8, align 8
  %.not.i.i = icmp eq i64 %23, 0
  br i1 %.not.i.i, label %_ZNK5faiss12_GLOBAL__N_110DCTemplateINS0_17QuantizerTemplateINS0_9Codec8bitELb0ELi1EEENS0_12SimilarityL2ILi1EEELi1EE13query_to_codeEPKh.exit, label %.lr.ph.i.i

.lr.ph.i.i:                                       ; preds = %22
  %24 = load ptr, ptr %9, align 8
  %25 = load ptr, ptr %10, align 8
  %26 = load ptr, ptr %11, align 8
  br label %27

27:                                               ; preds = %27, %.lr.ph.i.i
  %.023.i.i = phi i64 [ 0, %.lr.ph.i.i ], [ %43, %27 ]
  %.sroa.5.022.i.i = phi float [ 0.000000e+00, %.lr.ph.i.i ], [ %42, %27 ]
  %.sroa.2.021.i.i = phi ptr [ %24, %.lr.ph.i.i ], [ %39, %27 ]
  %sext.i.i = shl i64 %.023.i.i, 32
  %28 = ashr exact i64 %sext.i.i, 32
  %29 = getelementptr inbounds i8, ptr %.019, i64 %28
  %30 = load i8, ptr %29, align 1
  %31 = uitofp i8 %30 to float
  %32 = fadd float %31, 5.000000e-01
  %33 = fdiv float %32, 2.550000e+02
  %34 = getelementptr inbounds float, ptr %25, i64 %28
  %35 = load float, ptr %34, align 4
  %36 = getelementptr inbounds float, ptr %26, i64 %28
  %37 = load float, ptr %36, align 4
  %38 = tail call noundef float @llvm.fmuladd.f32(float %33, float %37, float %35)
  %39 = getelementptr inbounds i8, ptr %.sroa.2.021.i.i, i64 4
  %40 = load float, ptr %.sroa.2.021.i.i, align 4
  %41 = fsub float %40, %38
  %42 = tail call float @llvm.fmuladd.f32(float %41, float %41, float %.sroa.5.022.i.i)
  %43 = add nuw i64 %.023.i.i, 1
  %exitcond.not.i.i = icmp eq i64 %43, %23
  br i1 %exitcond.not.i.i, label %_ZNK5faiss12_GLOBAL__N_110DCTemplateINS0_17QuantizerTemplateINS0_9Codec8bitELb0ELi1EEENS0_12SimilarityL2ILi1EEELi1EE13query_to_codeEPKh.exit, label %27, !llvm.loop !49

_ZNK5faiss12_GLOBAL__N_110DCTemplateINS0_17QuantizerTemplateINS0_9Codec8bitELb0ELi1EEENS0_12SimilarityL2ILi1EEELi1EE13query_to_codeEPKh.exit: ; preds = %27, %22
  %.sroa.5.0.lcssa.i.i = phi float [ 0.000000e+00, %22 ], [ %42, %27 ]
  %44 = fcmp olt float %.sroa.5.0.lcssa.i.i, %4
  br i1 %44, label %45, label %56

45:                                               ; preds = %_ZNK5faiss12_GLOBAL__N_110DCTemplateINS0_17QuantizerTemplateINS0_9Codec8bitELb0ELi1EEENS0_12SimilarityL2ILi1EEELi1EE13query_to_codeEPKh.exit
  %46 = load i8, ptr %12, align 1
  %47 = and i8 %46, 1
  %.not = icmp eq i8 %47, 0
  br i1 %.not, label %52, label %48

48:                                               ; preds = %45
  %49 = load i64, ptr %13, align 8
  %50 = shl i64 %49, 32
  %51 = or i64 %50, %.01517
  br label %54

52:                                               ; preds = %45
  %53 = load i64, ptr %17, align 8
  br label %54

54:                                               ; preds = %52, %48
  %55 = phi i64 [ %51, %48 ], [ %53, %52 ]
  tail call void @_ZN5faiss16RangeQueryResult3addEfl(ptr noundef nonnull align 8 dereferenceable(24) %5, float noundef %.sroa.5.0.lcssa.i.i, i64 noundef %55)
  br label %56

56:                                               ; preds = %_ZNK5faiss12_GLOBAL__N_110DCTemplateINS0_17QuantizerTemplateINS0_9Codec8bitELb0ELi1EEENS0_12SimilarityL2ILi1EEELi1EE13query_to_codeEPKh.exit, %54, %15
  %57 = add nuw i64 %.01517, 1
  %58 = load i64, ptr %14, align 8
  %59 = getelementptr inbounds i8, ptr %.019, i64 %58
  %exitcond.not = icmp eq i64 %57, %1
  br i1 %exitcond.not, label %._crit_edge, label %15, !llvm.loop !92

._crit_edge:                                      ; preds = %56, %6
  ret void
}